; Function Attrs: nounwind uwtable
define hidden noundef i32 @KeccakWidth1600_SpongeSqueeze(ptr noundef %0, ptr noundef %1, i64 noundef %2) local_unnamed_addr #0 {
  %4 = getelementptr inbounds nuw i8, ptr %0, i64 200
  %5 = load i32, ptr %4, align 8, !tbaa !7
  %6 = lshr i32 %5, 3
  %7 = getelementptr inbounds nuw i8, ptr %0, i64 208
  %8 = load i32, ptr %7, align 8, !tbaa !11
  %.not = icmp eq i32 %8, 0
  br i1 %.not, label %KeccakWidth1600_SpongeAbsorbLastFewBits.exit, label %19

KeccakWidth1600_SpongeAbsorbLastFewBits.exit:     ; preds = %3
  %9 = getelementptr inbounds nuw i8, ptr %0, i64 204
  %10 = load i32, ptr %9, align 4, !tbaa !10
  %11 = zext i32 %10 to i64
  %12 = getelementptr inbounds nuw i8, ptr %0, i64 %11
  %13 = load i8, ptr %12, align 1, !tbaa !4
  %14 = xor i8 %13, 1
  store i8 %14, ptr %12, align 1, !tbaa !4
  %.pre.i = add nsw i32 %6, -1
  %15 = zext i32 %.pre.i to i64
  %16 = getelementptr inbounds nuw i8, ptr %0, i64 %15
  %17 = load i8, ptr %16, align 1, !tbaa !4
  %18 = xor i8 %17, -128
  store i8 %18, ptr %16, align 1, !tbaa !4
  tail call void @KeccakP1600_Permute_24rounds(ptr noundef nonnull %0) #4
  store i32 0, ptr %9, align 4, !tbaa !10
  store i32 1, ptr %7, align 8, !tbaa !11
  br label %19

19:                                               ; preds = %KeccakWidth1600_SpongeAbsorbLastFewBits.exit, %3
  %.not62 = icmp eq i64 %2, 0
  br i1 %.not62, label %._crit_edge, label %.lr.ph

.lr.ph:                                           ; preds = %19
  %20 = getelementptr inbounds nuw i8, ptr %0, i64 204
  %21 = zext nneg i32 %6 to i64
  br label %22

22:                                               ; preds = %.lr.ph, %39
  %.061 = phi ptr [ %1, %.lr.ph ], [ %.2, %39 ]
  %.04660 = phi i64 [ 0, %.lr.ph ], [ %.147, %39 ]
  %23 = load i32, ptr %20, align 4, !tbaa !10
  %24 = icmp eq i32 %23, %6
  %25 = sub i64 %2, %.04660
  br i1 %24, label %26, label %._crit_edge64

26:                                               ; preds = %22
  %.not55 = icmp ult i64 %25, %21
  br i1 %.not55, label %31, label %.preheader

.preheader:                                       ; preds = %26, %.preheader
  %.159 = phi ptr [ %27, %.preheader ], [ %.061, %26 ]
  %.04958 = phi i64 [ %28, %.preheader ], [ %25, %26 ]
  tail call void @KeccakP1600_Permute_24rounds(ptr noundef %0) #4
  tail call void @KeccakP1600_ExtractBytes(ptr noundef %0, ptr noundef %.159, i32 noundef 0, i32 noundef %6) #4
  %27 = getelementptr inbounds nuw i8, ptr %.159, i64 %21
  %28 = sub nuw i64 %.04958, %21
  %.not56 = icmp ult i64 %28, %21
  br i1 %.not56, label %29, label %.preheader

29:                                               ; preds = %.preheader
  %30 = sub i64 %2, %28
  br label %39

31:                                               ; preds = %26
  tail call void @KeccakP1600_Permute_24rounds(ptr noundef nonnull %0) #4
  store i32 0, ptr %20, align 4, !tbaa !10
  br label %._crit_edge64

._crit_edge64:                                    ; preds = %22, %31
  %32 = phi i32 [ 0, %31 ], [ %23, %22 ]
  %33 = sub i32 %6, %32
  %34 = zext i32 %33 to i64
  %.04857 = tail call i64 @llvm.umin.i64(i64 %25, i64 %34)
  %.048 = trunc nuw i64 %.04857 to i32
  %35 = add i64 %.04857, %.04660
  tail call void @KeccakP1600_ExtractBytes(ptr noundef nonnull %0, ptr noundef %.061, i32 noundef %32, i32 noundef %.048) #4
  %36 = getelementptr inbounds nuw i8, ptr %.061, i64 %.04857
  %37 = load i32, ptr %20, align 4, !tbaa !10
  %38 = add i32 %37, %.048
  store i32 %38, ptr %20, align 4, !tbaa !10
  br label %39

39:                                               ; preds = %._crit_edge64, %29
  %.147 = phi i64 [ %30, %29 ], [ %35, %._crit_edge64 ]
  %.2 = phi ptr [ %27, %29 ], [ %36, %._crit_edge64 ]
  %40 = icmp ult i64 %.147, %2
  br i1 %40, label %22, label %._crit_edge

._crit_edge:                                      ; preds = %39, %19
  ret i32 0
}